target datalayout = "e-m:e-p270:32:32-p271:32:32-p272:64:64-i64:64-i128:128-f80:128-n8:16:32:64-S128"
target triple = "x86_64-pc-linux-gnu"

%struct.b2Vec2 = type { float, float }
%struct.b2JointSim = type { i32, i32, i32, i32, %struct.b2Vec2, %struct.b2Vec2, float, float, float, float, %union.anon.0 }
%union.anon.0 = type { %struct.b2PrismaticJoint }
%struct.b2PrismaticJoint = type { %struct.b2Vec2, %struct.b2Vec2, float, float, float, float, float, float, float, float, float, float, float, i32, i32, %struct.b2Vec2, %struct.b2Vec2, %struct.b2Vec2, %struct.b2Vec2, float, float, %struct.b2Softness, i8, i8, i8 }
%struct.b2Softness = type { float, float, float }

; Function Attrs: nounwind uwtable
define hidden void @b2SolveJoint(ptr noundef %0, ptr noundef %1, i1 noundef zeroext %2) #0 {
  %4 = alloca ptr, align 8
  %5 = alloca ptr, align 8
  %6 = alloca i8, align 1
  store ptr %0, ptr %4, align 8, !tbaa !121
  store ptr %1, ptr %5, align 8, !tbaa !278
  %7 = zext i1 %2 to i8
  store i8 %7, ptr %6, align 1, !tbaa !133
  %8 = load ptr, ptr %4, align 8, !tbaa !121
  %9 = getelementptr inbounds nuw %struct.b2JointSim, ptr %8, i32 0, i32 3
  %10 = load i32, ptr %9, align 4, !tbaa !130
  switch i32 %10, label %44 [
    i32 0, label %11
    i32 1, label %16
    i32 2, label %21
    i32 3, label %45
    i32 4, label %24
    i32 5, label %29
    i32 6, label %34
    i32 7, label %39
  ]

11:                                               ; preds = %3
  %12 = load ptr, ptr %4, align 8, !tbaa !121
  %13 = load ptr, ptr %5, align 8, !tbaa !278
  %14 = load i8, ptr %6, align 1, !tbaa !133, !range !119, !noundef !120
  %15 = trunc i8 %14 to i1
  call void @b2SolveDistanceJoint(ptr noundef %12, ptr noundef %13, i1 noundef zeroext %15)
  br label %45

16:                                               ; preds = %3
  %17 = load ptr, ptr %4, align 8, !tbaa !121
  %18 = load ptr, ptr %5, align 8, !tbaa !278
  %19 = load i8, ptr %6, align 1, !tbaa !133, !range !119, !noundef !120
  %20 = trunc i8 %19 to i1
  call void @b2SolveMotorJoint(ptr noundef %17, ptr noundef %18, i1 noundef zeroext %20)
  br label %45

21:                                               ; preds = %3
  %22 = load ptr, ptr %4, align 8, !tbaa !121
  %23 = load ptr, ptr %5, align 8, !tbaa !278
  call void @b2SolveMouseJoint(ptr noundef %22, ptr noundef %23)
  br label %45

24:                                               ; preds = %3
  %25 = load ptr, ptr %4, align 8, !tbaa !121
  %26 = load ptr, ptr %5, align 8, !tbaa !278
  %27 = load i8, ptr %6, align 1, !tbaa !133, !range !119, !noundef !120
  %28 = trunc i8 %27 to i1
  call void @b2SolvePrismaticJoint(ptr noundef %25, ptr noundef %26, i1 noundef zeroext %28)
  br label %45

29:                                               ; preds = %3
  %30 = load ptr, ptr %4, align 8, !tbaa !121
  %31 = load ptr, ptr %5, align 8, !tbaa !278
  %32 = load i8, ptr %6, align 1, !tbaa !133, !range !119, !noundef !120
  %33 = trunc i8 %32 to i1
  call void @b2SolveRevoluteJoint(ptr noundef %30, ptr noundef %31, i1 noundef zeroext %33)
  br label %45

34:                                               ; preds = %3
  %35 = load ptr, ptr %4, align 8, !tbaa !121
  %36 = load ptr, ptr %5, align 8, !tbaa !278
  %37 = load i8, ptr %6, align 1, !tbaa !133, !range !119, !noundef !120
  %38 = trunc i8 %37 to i1
  call void @b2SolveWeldJoint(ptr noundef %35, ptr noundef %36, i1 noundef zeroext %38)
  br label %45

39:                                               ; preds = %3
  %40 = load ptr, ptr %4, align 8, !tbaa !121
  %41 = load ptr, ptr %5, align 8, !tbaa !278
  %42 = load i8, ptr %6, align 1, !tbaa !133, !range !119, !noundef !120
  %43 = trunc i8 %42 to i1
  call void @b2SolveWheelJoint(ptr noundef %40, ptr noundef %41, i1 noundef zeroext %43)
  br label %45

44:                                               ; preds = %3
  br label %45

45:                                               ; preds = %44, %39, %34, %29, %24, %3, %21, %16, %11
  ret void
}