; Function Attrs: nounwind uwtable
define hidden void @b2SolveJoint(ptr noundef %0, ptr noundef %1, i1 noundef zeroext %2) local_unnamed_addr #0 {
  %4 = getelementptr inbounds nuw i8, ptr %0, i64 12
  %5 = load i32, ptr %4, align 4, !tbaa !107
  switch i32 %5, label %13 [
    i32 0, label %6
    i32 1, label %7
    i32 2, label %8
    i32 7, label %12
    i32 4, label %9
    i32 5, label %10
    i32 6, label %11
  ]

6:                                                ; preds = %3
  tail call void @b2SolveDistanceJoint(ptr noundef nonnull %0, ptr noundef %1, i1 noundef zeroext %2) #10
  br label %13

7:                                                ; preds = %3
  tail call void @b2SolveMotorJoint(ptr noundef nonnull %0, ptr noundef %1, i1 noundef zeroext %2) #10
  br label %13

8:                                                ; preds = %3
  tail call void @b2SolveMouseJoint(ptr noundef nonnull %0, ptr noundef %1) #10
  br label %13

9:                                                ; preds = %3
  tail call void @b2SolvePrismaticJoint(ptr noundef nonnull %0, ptr noundef %1, i1 noundef zeroext %2) #10
  br label %13

10:                                               ; preds = %3
  tail call void @b2SolveRevoluteJoint(ptr noundef nonnull %0, ptr noundef %1, i1 noundef zeroext %2) #10
  br label %13

11:                                               ; preds = %3
  tail call void @b2SolveWeldJoint(ptr noundef nonnull %0, ptr noundef %1, i1 noundef zeroext %2) #10
  br label %13

12:                                               ; preds = %3
  tail call void @b2SolveWheelJoint(ptr noundef nonnull %0, ptr noundef %1, i1 noundef zeroext %2) #10
  br label %13

13:                                               ; preds = %3, %12, %11, %10, %9, %8, %7, %6
  ret void
}